target datalayout = "e-m:e-p270:32:32-p271:32:32-p272:64:64-i64:64-i128:128-f80:128-n8:16:32:64-S128"
target triple = "x86_64-pc-linux-gnu"

%struct.UserDefinedPropertyValue = type { i32, ptr }

@UserDefinedPropertyNum = internal global i32 0, align 4
@UserDefinedPropertyRanges = internal global [20 x %struct.UserDefinedPropertyValue] zeroinitializer, align 16

; Function Attrs: nounwind uwtable
define dso_local i32 @onigenc_unicode_ctype_code_range(i32 noundef %0, ptr noundef %1) #0 {
  %3 = alloca i32, align 4
  %4 = alloca i32, align 4
  %5 = alloca ptr, align 8
  %6 = alloca i32, align 4
  %7 = alloca i32, align 4
  store i32 %0, ptr %4, align 4, !tbaa !9
  store ptr %1, ptr %5, align 8, !tbaa !89
  %8 = load i32, ptr %4, align 4, !tbaa !9
  %9 = icmp uge i32 %8, 629
  br i1 %9, label %10, label %25

10:                                               ; preds = %2
  call void @llvm.lifetime.start.p0(i64 4, ptr %6) #7
  %11 = load i32, ptr %4, align 4, !tbaa !9
  %12 = sub i32 %11, 629
  store i32 %12, ptr %6, align 4, !tbaa !9
  %13 = load i32, ptr %6, align 4, !tbaa !9
  %14 = load i32, ptr @UserDefinedPropertyNum, align 4, !tbaa !9
  %15 = icmp slt i32 %13, %14
  br i1 %15, label %16, label %23

16:                                               ; preds = %10
  %17 = load i32, ptr %6, align 4, !tbaa !9
  %18 = sext i32 %17 to i64
  %19 = getelementptr inbounds [20 x %struct.UserDefinedPropertyValue], ptr @UserDefinedPropertyRanges, i64 0, i64 %18
  %20 = getelementptr inbounds nuw %struct.UserDefinedPropertyValue, ptr %19, i32 0, i32 1
  %21 = load ptr, ptr %20, align 8, !tbaa !79
  %22 = load ptr, ptr %5, align 8, !tbaa !89
  store ptr %21, ptr %22, align 8, !tbaa !25
  store i32 0, ptr %3, align 4
  store i32 1, ptr %7, align 4
  br label %24

23:                                               ; preds = %10
  store i32 -6, ptr %3, align 4
  store i32 1, ptr %7, align 4
  br label %24

24:                                               ; preds = %23, %16
  call void @llvm.lifetime.end.p0(i64 4, ptr %6) #7
  br label %31

25:                                               ; preds = %2
  %26 = load i32, ptr %4, align 4, !tbaa !9
  %27 = zext i32 %26 to i64
  %28 = getelementptr inbounds nuw [629 x ptr], ptr @CodeRanges, i64 0, i64 %27
  %29 = load ptr, ptr %28, align 8, !tbaa !25
  %30 = load ptr, ptr %5, align 8, !tbaa !89
  store ptr %29, ptr %30, align 8, !tbaa !25
  store i32 0, ptr %3, align 4
  br label %31

31:                                               ; preds = %25, %24
  %32 = load i32, ptr %3, align 4
  ret i32 %32
}

; Function Attrs: nounwind uwtable
define dso_local i32 @onigenc_utf16_32_get_ctype_code_range(i32 noundef %0, ptr noundef %1, ptr noundef %2) #0 {
  %4 = alloca i32, align 4
  %5 = alloca ptr, align 8
  %6 = alloca ptr, align 8
  store i32 %0, ptr %4, align 4, !tbaa !9
  store ptr %1, ptr %5, align 8, !tbaa !25
  store ptr %2, ptr %6, align 8, !tbaa !89
  %7 = load ptr, ptr %5, align 8, !tbaa !25
  store i32 0, ptr %7, align 4, !tbaa !9
  %8 = load i32, ptr %4, align 4, !tbaa !9
  %9 = load ptr, ptr %6, align 8, !tbaa !89
  %10 = call i32 @onigenc_unicode_ctype_code_range(i32 noundef %8, ptr noundef %9)
  ret i32 %10
}